target datalayout = "e-m:e-p270:32:32-p271:32:32-p272:64:64-i64:64-i128:128-f80:128-n8:16:32:64-S128"
target triple = "x86_64-pc-linux-gnu"

%struct.DES_ks = type { [16 x %union.anon] }
%union.anon = type { [2 x i32] }

@DES_set_key_unchecked.shifts2 = internal constant [16 x i32] [i32 0, i32 0, i32 1, i32 1, i32 1, i32 1, i32 1, i32 1, i32 0, i32 1, i32 1, i32 1, i32 1, i32 1, i32 1, i32 0], align 16

; Function Attrs: nounwind uwtable
define void @DES_set_key_unchecked(ptr noundef %0, ptr noundef %1) #0 {
  %3 = alloca ptr, align 8
  %4 = alloca ptr, align 8
  %5 = alloca i32, align 4
  %6 = alloca i32, align 4
  %7 = alloca i32, align 4
  %8 = alloca i32, align 4
  %9 = alloca i32, align 4
  %10 = alloca ptr, align 8
  %11 = alloca ptr, align 8
  %12 = alloca i32, align 4
  %13 = alloca i32, align 4
  %14 = alloca i32, align 4
  %15 = alloca i32, align 4
  %16 = alloca i32, align 4
  store ptr %0, ptr %3, align 8, !tbaa !3
  store ptr %1, ptr %4, align 8, !tbaa !15
  call void @llvm.lifetime.start.p0(i64 4, ptr %5) #4
  call void @llvm.lifetime.start.p0(i64 4, ptr %6) #4
  call void @llvm.lifetime.start.p0(i64 4, ptr %7) #4
  call void @llvm.lifetime.start.p0(i64 4, ptr %8) #4
  call void @llvm.lifetime.start.p0(i64 4, ptr %9) #4
  call void @llvm.lifetime.start.p0(i64 8, ptr %10) #4
  call void @llvm.lifetime.start.p0(i64 8, ptr %11) #4
  call void @llvm.lifetime.start.p0(i64 4, ptr %12) #4
  %17 = load ptr, ptr %4, align 8, !tbaa !15
  %18 = getelementptr inbounds nuw %struct.DES_ks, ptr %17, i32 0, i32 0
  %19 = getelementptr inbounds [16 x %union.anon], ptr %18, i64 0, i64 0
  %20 = getelementptr inbounds [2 x i32], ptr %19, i64 0, i64 0
  store ptr %20, ptr %11, align 8, !tbaa !17
  %21 = load ptr, ptr %3, align 8, !tbaa !3
  %22 = getelementptr inbounds [8 x i8], ptr %21, i64 0, i64 0
  store ptr %22, ptr %10, align 8, !tbaa !3
  %23 = load ptr, ptr %10, align 8, !tbaa !3
  %24 = getelementptr inbounds nuw i8, ptr %23, i32 1
  store ptr %24, ptr %10, align 8, !tbaa !3
  %25 = load i8, ptr %23, align 1, !tbaa !10
  %26 = zext i8 %25 to i32
  store i32 %26, ptr %5, align 4, !tbaa !8
  %27 = load ptr, ptr %10, align 8, !tbaa !3
  %28 = getelementptr inbounds nuw i8, ptr %27, i32 1
  store ptr %28, ptr %10, align 8, !tbaa !3
  %29 = load i8, ptr %27, align 1, !tbaa !10
  %30 = zext i8 %29 to i32
  %31 = shl i32 %30, 8
  %32 = load i32, ptr %5, align 4, !tbaa !8
  %33 = or i32 %32, %31
  store i32 %33, ptr %5, align 4, !tbaa !8
  %34 = load ptr, ptr %10, align 8, !tbaa !3
  %35 = getelementptr inbounds nuw i8, ptr %34, i32 1
  store ptr %35, ptr %10, align 8, !tbaa !3
  %36 = load i8, ptr %34, align 1, !tbaa !10
  %37 = zext i8 %36 to i32
  %38 = shl i32 %37, 16
  %39 = load i32, ptr %5, align 4, !tbaa !8
  %40 = or i32 %39, %38
  store i32 %40, ptr %5, align 4, !tbaa !8
  %41 = load ptr, ptr %10, align 8, !tbaa !3
  %42 = getelementptr inbounds nuw i8, ptr %41, i32 1
  store ptr %42, ptr %10, align 8, !tbaa !3
  %43 = load i8, ptr %41, align 1, !tbaa !10
  %44 = zext i8 %43 to i32
  %45 = shl i32 %44, 24
  %46 = load i32, ptr %5, align 4, !tbaa !8
  %47 = or i32 %46, %45
  store i32 %47, ptr %5, align 4, !tbaa !8
  %48 = load ptr, ptr %10, align 8, !tbaa !3
  %49 = getelementptr inbounds nuw i8, ptr %48, i32 1
  store ptr %49, ptr %10, align 8, !tbaa !3
  %50 = load i8, ptr %48, align 1, !tbaa !10
  %51 = zext i8 %50 to i32
  store i32 %51, ptr %6, align 4, !tbaa !8
  %52 = load ptr, ptr %10, align 8, !tbaa !3
  %53 = getelementptr inbounds nuw i8, ptr %52, i32 1
  store ptr %53, ptr %10, align 8, !tbaa !3
  %54 = load i8, ptr %52, align 1, !tbaa !10
  %55 = zext i8 %54 to i32
  %56 = shl i32 %55, 8
  %57 = load i32, ptr %6, align 4, !tbaa !8
  %58 = or i32 %57, %56
  store i32 %58, ptr %6, align 4, !tbaa !8
  %59 = load ptr, ptr %10, align 8, !tbaa !3
  %60 = getelementptr inbounds nuw i8, ptr %59, i32 1
  store ptr %60, ptr %10, align 8, !tbaa !3
  %61 = load i8, ptr %59, align 1, !tbaa !10
  %62 = zext i8 %61 to i32
  %63 = shl i32 %62, 16
  %64 = load i32, ptr %6, align 4, !tbaa !8
  %65 = or i32 %64, %63
  store i32 %65, ptr %6, align 4, !tbaa !8
  %66 = load ptr, ptr %10, align 8, !tbaa !3
  %67 = getelementptr inbounds nuw i8, ptr %66, i32 1
  store ptr %67, ptr %10, align 8, !tbaa !3
  %68 = load i8, ptr %66, align 1, !tbaa !10
  %69 = zext i8 %68 to i32
  %70 = shl i32 %69, 24
  %71 = load i32, ptr %6, align 4, !tbaa !8
  %72 = or i32 %71, %70
  store i32 %72, ptr %6, align 4, !tbaa !8
  %73 = load i32, ptr %6, align 4, !tbaa !8
  %74 = lshr i32 %73, 4
  %75 = load i32, ptr %5, align 4, !tbaa !8
  %76 = xor i32 %74, %75
  %77 = zext i32 %76 to i64
  %78 = and i64 %77, 252645135
  %79 = trunc i64 %78 to i32
  store i32 %79, ptr %7, align 4, !tbaa !8
  %80 = load i32, ptr %7, align 4, !tbaa !8
  %81 = load i32, ptr %5, align 4, !tbaa !8
  %82 = xor i32 %81, %80
  store i32 %82, ptr %5, align 4, !tbaa !8
  %83 = load i32, ptr %7, align 4, !tbaa !8
  %84 = shl i32 %83, 4
  %85 = load i32, ptr %6, align 4, !tbaa !8
  %86 = xor i32 %85, %84
  store i32 %86, ptr %6, align 4, !tbaa !8
  %87 = load i32, ptr %5, align 4, !tbaa !8
  %88 = shl i32 %87, 18
  %89 = load i32, ptr %5, align 4, !tbaa !8
  %90 = xor i32 %88, %89
  %91 = zext i32 %90 to i64
  %92 = and i64 %91, 3435921408
  %93 = trunc i64 %92 to i32
  store i32 %93, ptr %7, align 4, !tbaa !8
  %94 = load i32, ptr %5, align 4, !tbaa !8
  %95 = load i32, ptr %7, align 4, !tbaa !8
  %96 = xor i32 %94, %95
  %97 = load i32, ptr %7, align 4, !tbaa !8
  %98 = lshr i32 %97, 18
  %99 = xor i32 %96, %98
  store i32 %99, ptr %5, align 4, !tbaa !8
  %100 = load i32, ptr %6, align 4, !tbaa !8
  %101 = shl i32 %100, 18
  %102 = load i32, ptr %6, align 4, !tbaa !8
  %103 = xor i32 %101, %102
  %104 = zext i32 %103 to i64
  %105 = and i64 %104, 3435921408
  %106 = trunc i64 %105 to i32
  store i32 %106, ptr %7, align 4, !tbaa !8
  %107 = load i32, ptr %6, align 4, !tbaa !8
  %108 = load i32, ptr %7, align 4, !tbaa !8
  %109 = xor i32 %107, %108
  %110 = load i32, ptr %7, align 4, !tbaa !8
  %111 = lshr i32 %110, 18
  %112 = xor i32 %109, %111
  store i32 %112, ptr %6, align 4, !tbaa !8
  %113 = load i32, ptr %6, align 4, !tbaa !8
  %114 = lshr i32 %113, 1
  %115 = load i32, ptr %5, align 4, !tbaa !8
  %116 = xor i32 %114, %115
  %117 = zext i32 %116 to i64
  %118 = and i64 %117, 1431655765
  %119 = trunc i64 %118 to i32
  store i32 %119, ptr %7, align 4, !tbaa !8
  %120 = load i32, ptr %7, align 4, !tbaa !8
  %121 = load i32, ptr %5, align 4, !tbaa !8
  %122 = xor i32 %121, %120
  store i32 %122, ptr %5, align 4, !tbaa !8
  %123 = load i32, ptr %7, align 4, !tbaa !8
  %124 = shl i32 %123, 1
  %125 = load i32, ptr %6, align 4, !tbaa !8
  %126 = xor i32 %125, %124
  store i32 %126, ptr %6, align 4, !tbaa !8
  %127 = load i32, ptr %5, align 4, !tbaa !8
  %128 = lshr i32 %127, 8
  %129 = load i32, ptr %6, align 4, !tbaa !8
  %130 = xor i32 %128, %129
  %131 = zext i32 %130 to i64
  %132 = and i64 %131, 16711935
  %133 = trunc i64 %132 to i32
  store i32 %133, ptr %7, align 4, !tbaa !8
  %134 = load i32, ptr %7, align 4, !tbaa !8
  %135 = load i32, ptr %6, align 4, !tbaa !8
  %136 = xor i32 %135, %134
  store i32 %136, ptr %6, align 4, !tbaa !8
  %137 = load i32, ptr %7, align 4, !tbaa !8
  %138 = shl i32 %137, 8
  %139 = load i32, ptr %5, align 4, !tbaa !8
  %140 = xor i32 %139, %138
  store i32 %140, ptr %5, align 4, !tbaa !8
  %141 = load i32, ptr %6, align 4, !tbaa !8
  %142 = lshr i32 %141, 1
  %143 = load i32, ptr %5, align 4, !tbaa !8
  %144 = xor i32 %142, %143
  %145 = zext i32 %144 to i64
  %146 = and i64 %145, 1431655765
  %147 = trunc i64 %146 to i32
  store i32 %147, ptr %7, align 4, !tbaa !8
  %148 = load i32, ptr %7, align 4, !tbaa !8
  %149 = load i32, ptr %5, align 4, !tbaa !8
  %150 = xor i32 %149, %148
  store i32 %150, ptr %5, align 4, !tbaa !8
  %151 = load i32, ptr %7, align 4, !tbaa !8
  %152 = shl i32 %151, 1
  %153 = load i32, ptr %6, align 4, !tbaa !8
  %154 = xor i32 %153, %152
  store i32 %154, ptr %6, align 4, !tbaa !8
  %155 = load i32, ptr %6, align 4, !tbaa !8
  %156 = zext i32 %155 to i64
  %157 = and i64 %156, 255
  %158 = shl i64 %157, 16
  %159 = load i32, ptr %6, align 4, !tbaa !8
  %160 = zext i32 %159 to i64
  %161 = and i64 %160, 65280
  %162 = or i64 %158, %161
  %163 = load i32, ptr %6, align 4, !tbaa !8
  %164 = zext i32 %163 to i64
  %165 = and i64 %164, 16711680
  %166 = ashr i64 %165, 16
  %167 = or i64 %162, %166
  %168 = load i32, ptr %5, align 4, !tbaa !8
  %169 = zext i32 %168 to i64
  %170 = and i64 %169, 4026531840
  %171 = ashr i64 %170, 4
  %172 = or i64 %167, %171
  %173 = trunc i64 %172 to i32
  store i32 %173, ptr %6, align 4, !tbaa !8
  %174 = load i32, ptr %5, align 4, !tbaa !8
  %175 = zext i32 %174 to i64
  %176 = and i64 %175, 268435455
  %177 = trunc i64 %176 to i32
  store i32 %177, ptr %5, align 4, !tbaa !8
  store i32 0, ptr %12, align 4, !tbaa !8
  br label %178

178:                                              ; preds = %329, %2
  %179 = load i32, ptr %12, align 4, !tbaa !8
  %180 = icmp slt i32 %179, 16
  br i1 %180, label %181, label %332

181:                                              ; preds = %178
  %182 = load i32, ptr %12, align 4, !tbaa !8
  %183 = sext i32 %182 to i64
  %184 = getelementptr inbounds [16 x i32], ptr @DES_set_key_unchecked.shifts2, i64 0, i64 %183
  %185 = load i32, ptr %184, align 4, !tbaa !8
  %186 = icmp ne i32 %185, 0
  br i1 %186, label %187, label %198

187:                                              ; preds = %181
  %188 = load i32, ptr %5, align 4, !tbaa !8
  %189 = lshr i32 %188, 2
  %190 = load i32, ptr %5, align 4, !tbaa !8
  %191 = shl i32 %190, 26
  %192 = or i32 %189, %191
  store i32 %192, ptr %5, align 4, !tbaa !8
  %193 = load i32, ptr %6, align 4, !tbaa !8
  %194 = lshr i32 %193, 2
  %195 = load i32, ptr %6, align 4, !tbaa !8
  %196 = shl i32 %195, 26
  %197 = or i32 %194, %196
  store i32 %197, ptr %6, align 4, !tbaa !8
  br label %209

198:                                              ; preds = %181
  %199 = load i32, ptr %5, align 4, !tbaa !8
  %200 = lshr i32 %199, 1
  %201 = load i32, ptr %5, align 4, !tbaa !8
  %202 = shl i32 %201, 27
  %203 = or i32 %200, %202
  store i32 %203, ptr %5, align 4, !tbaa !8
  %204 = load i32, ptr %6, align 4, !tbaa !8
  %205 = lshr i32 %204, 1
  %206 = load i32, ptr %6, align 4, !tbaa !8
  %207 = shl i32 %206, 27
  %208 = or i32 %205, %207
  store i32 %208, ptr %6, align 4, !tbaa !8
  br label %209

209:                                              ; preds = %198, %187
  %210 = load i32, ptr %5, align 4, !tbaa !8
  %211 = zext i32 %210 to i64
  %212 = and i64 %211, 268435455
  %213 = trunc i64 %212 to i32
  store i32 %213, ptr %5, align 4, !tbaa !8
  %214 = load i32, ptr %6, align 4, !tbaa !8
  %215 = zext i32 %214 to i64
  %216 = and i64 %215, 268435455
  %217 = trunc i64 %216 to i32
  store i32 %217, ptr %6, align 4, !tbaa !8
  %218 = load i32, ptr %5, align 4, !tbaa !8
  %219 = and i32 %218, 63
  %220 = zext i32 %219 to i64
  %221 = getelementptr inbounds nuw [64 x i32], ptr @des_skb, i64 0, i64 %220
  %222 = load i32, ptr %221, align 4, !tbaa !8
  %223 = load i32, ptr %5, align 4, !tbaa !8
  %224 = lshr i32 %223, 6
  %225 = and i32 %224, 3
  %226 = load i32, ptr %5, align 4, !tbaa !8
  %227 = lshr i32 %226, 7
  %228 = and i32 %227, 60
  %229 = or i32 %225, %228
  %230 = zext i32 %229 to i64
  %231 = getelementptr inbounds nuw [64 x i32], ptr getelementptr inbounds ([8 x [64 x i32]], ptr @des_skb, i64 0, i64 1), i64 0, i64 %230
  %232 = load i32, ptr %231, align 4, !tbaa !8
  %233 = or i32 %222, %232
  %234 = load i32, ptr %5, align 4, !tbaa !8
  %235 = lshr i32 %234, 13
  %236 = and i32 %235, 15
  %237 = load i32, ptr %5, align 4, !tbaa !8
  %238 = lshr i32 %237, 14
  %239 = and i32 %238, 48
  %240 = or i32 %236, %239
  %241 = zext i32 %240 to i64
  %242 = getelementptr inbounds nuw [64 x i32], ptr getelementptr inbounds ([8 x [64 x i32]], ptr @des_skb, i64 0, i64 2), i64 0, i64 %241
  %243 = load i32, ptr %242, align 4, !tbaa !8
  %244 = or i32 %233, %243
  %245 = load i32, ptr %5, align 4, !tbaa !8
  %246 = lshr i32 %245, 20
  %247 = and i32 %246, 1
  %248 = load i32, ptr %5, align 4, !tbaa !8
  %249 = lshr i32 %248, 21
  %250 = and i32 %249, 6
  %251 = or i32 %247, %250
  %252 = load i32, ptr %5, align 4, !tbaa !8
  %253 = lshr i32 %252, 22
  %254 = and i32 %253, 56
  %255 = or i32 %251, %254
  %256 = zext i32 %255 to i64
  %257 = getelementptr inbounds nuw [64 x i32], ptr getelementptr inbounds ([8 x [64 x i32]], ptr @des_skb, i64 0, i64 3), i64 0, i64 %256
  %258 = load i32, ptr %257, align 4, !tbaa !8
  %259 = or i32 %244, %258
  store i32 %259, ptr %8, align 4, !tbaa !8
  %260 = load i32, ptr %6, align 4, !tbaa !8
  %261 = and i32 %260, 63
  %262 = zext i32 %261 to i64
  %263 = getelementptr inbounds nuw [64 x i32], ptr getelementptr inbounds ([8 x [64 x i32]], ptr @des_skb, i64 0, i64 4), i64 0, i64 %262
  %264 = load i32, ptr %263, align 4, !tbaa !8
  %265 = load i32, ptr %6, align 4, !tbaa !8
  %266 = lshr i32 %265, 7
  %267 = and i32 %266, 3
  %268 = load i32, ptr %6, align 4, !tbaa !8
  %269 = lshr i32 %268, 8
  %270 = and i32 %269, 60
  %271 = or i32 %267, %270
  %272 = zext i32 %271 to i64
  %273 = getelementptr inbounds nuw [64 x i32], ptr getelementptr inbounds ([8 x [64 x i32]], ptr @des_skb, i64 0, i64 5), i64 0, i64 %272
  %274 = load i32, ptr %273, align 4, !tbaa !8
  %275 = or i32 %264, %274
  %276 = load i32, ptr %6, align 4, !tbaa !8
  %277 = lshr i32 %276, 15
  %278 = and i32 %277, 63
  %279 = zext i32 %278 to i64
  %280 = getelementptr inbounds nuw [64 x i32], ptr getelementptr inbounds ([8 x [64 x i32]], ptr @des_skb, i64 0, i64 6), i64 0, i64 %279
  %281 = load i32, ptr %280, align 4, !tbaa !8
  %282 = or i32 %275, %281
  %283 = load i32, ptr %6, align 4, !tbaa !8
  %284 = lshr i32 %283, 21
  %285 = and i32 %284, 15
  %286 = load i32, ptr %6, align 4, !tbaa !8
  %287 = lshr i32 %286, 22
  %288 = and i32 %287, 48
  %289 = or i32 %285, %288
  %290 = zext i32 %289 to i64
  %291 = getelementptr inbounds nuw [64 x i32], ptr getelementptr inbounds ([8 x [64 x i32]], ptr @des_skb, i64 0, i64 7), i64 0, i64 %290
  %292 = load i32, ptr %291, align 4, !tbaa !8
  %293 = or i32 %282, %292
  store i32 %293, ptr %7, align 4, !tbaa !8
  %294 = load i32, ptr %7, align 4, !tbaa !8
  %295 = shl i32 %294, 16
  %296 = zext i32 %295 to i64
  %297 = load i32, ptr %8, align 4, !tbaa !8
  %298 = zext i32 %297 to i64
  %299 = and i64 %298, 65535
  %300 = or i64 %296, %299
  %301 = and i64 %300, 4294967295
  %302 = trunc i64 %301 to i32
  store i32 %302, ptr %9, align 4, !tbaa !8
  call void @llvm.lifetime.start.p0(i64 4, ptr %13) #4
  %303 = load i32, ptr %9, align 4, !tbaa !8
  %304 = call i32 asm "rorl $1,$0", "=r,I,0,~{cc},~{dirflag},~{fpsr},~{flags}"(i32 30, i32 %303) #5, !srcloc !19
  store i32 %304, ptr %13, align 4, !tbaa !8
  %305 = load i32, ptr %13, align 4, !tbaa !8
  store i32 %305, ptr %14, align 4, !tbaa !8
  call void @llvm.lifetime.end.p0(i64 4, ptr %13) #4
  %306 = load i32, ptr %14, align 4, !tbaa !8
  %307 = zext i32 %306 to i64
  %308 = and i64 %307, 4294967295
  %309 = trunc i64 %308 to i32
  %310 = load ptr, ptr %11, align 8, !tbaa !17
  %311 = getelementptr inbounds nuw i32, ptr %310, i32 1
  store ptr %311, ptr %11, align 8, !tbaa !17
  store i32 %309, ptr %310, align 4, !tbaa !8
  %312 = load i32, ptr %8, align 4, !tbaa !8
  %313 = lshr i32 %312, 16
  %314 = zext i32 %313 to i64
  %315 = load i32, ptr %7, align 4, !tbaa !8
  %316 = zext i32 %315 to i64
  %317 = and i64 %316, 4294901760
  %318 = or i64 %314, %317
  %319 = trunc i64 %318 to i32
  store i32 %319, ptr %9, align 4, !tbaa !8
  call void @llvm.lifetime.start.p0(i64 4, ptr %15) #4
  %320 = load i32, ptr %9, align 4, !tbaa !8
  %321 = call i32 asm "rorl $1,$0", "=r,I,0,~{cc},~{dirflag},~{fpsr},~{flags}"(i32 26, i32 %320) #5, !srcloc !20
  store i32 %321, ptr %15, align 4, !tbaa !8
  %322 = load i32, ptr %15, align 4, !tbaa !8
  store i32 %322, ptr %16, align 4, !tbaa !8
  call void @llvm.lifetime.end.p0(i64 4, ptr %15) #4
  %323 = load i32, ptr %16, align 4, !tbaa !8
  %324 = zext i32 %323 to i64
  %325 = and i64 %324, 4294967295
  %326 = trunc i64 %325 to i32
  %327 = load ptr, ptr %11, align 8, !tbaa !17
  %328 = getelementptr inbounds nuw i32, ptr %327, i32 1
  store ptr %328, ptr %11, align 8, !tbaa !17
  store i32 %326, ptr %327, align 4, !tbaa !8
  br label %329

329:                                              ; preds = %209
  %330 = load i32, ptr %12, align 4, !tbaa !8
  %331 = add nsw i32 %330, 1
  store i32 %331, ptr %12, align 4, !tbaa !8
  br label %178, !llvm.loop !21

332:                                              ; preds = %178
  call void @llvm.lifetime.end.p0(i64 4, ptr %12) #4
  call void @llvm.lifetime.end.p0(i64 8, ptr %11) #4
  call void @llvm.lifetime.end.p0(i64 8, ptr %10) #4
  call void @llvm.lifetime.end.p0(i64 4, ptr %9) #4
  call void @llvm.lifetime.end.p0(i64 4, ptr %8) #4
  call void @llvm.lifetime.end.p0(i64 4, ptr %7) #4
  call void @llvm.lifetime.end.p0(i64 4, ptr %6) #4
  call void @llvm.lifetime.end.p0(i64 4, ptr %5) #4
  ret void
}